ccopy_reg
_reconstructor
p0
(csklearn.preprocessing.label
LabelEncoder
p1
c__builtin__
object
p2
Ntp3
Rp4
(dp5
S'classes_'
p6
cnumpy.core.multiarray
_reconstruct
p7
(cnumpy
ndarray
p8
(I0
tp9
S'b'
p10
tp11
Rp12
(I1
(I12
tp13
cnumpy
dtype
p14
(S'O8'
p15
I0
I1
tp16
Rp17
(I3
S'|'
p18
NNNI-1
I-1
I63
tp19
bI00
(lp20
S'Bash'
p21
aS'Blitzer'
p22
aS'Bush'
p23
aS'Clinton'
p24
aS'Cooper'
p25
aS'Cruz'
p26
aS'Kasich'
p27
aS'Kelly'
p28
aS'Rubio'
p29
aS'Sanders'
p30
aS'Tapper'
p31
aS'Trump'
p32
atp33
bsb.